target datalayout = "e-m:e-p270:32:32-p271:32:32-p272:64:64-i64:64-i128:128-f80:128-n8:16:32:64-S128"
target triple = "x86_64-pc-linux-gnu"

%struct.struct_it8 = type { i32, i32, i32, [255 x %struct._Table], ptr, %struct._SubAllocator, i32, i32, i32, double, ptr, ptr, ptr, ptr, ptr, i32, [20 x ptr], i32, ptr, [128 x i8], ptr }
%struct._Table = type { [1024 x i8], i32, i32, i32, ptr, ptr, ptr }
%struct._SubAllocator = type { ptr, i32, i32 }
%struct._FileContext = type { [256 x i8], ptr }
%struct.string = type { ptr, i32, i32, ptr }

@.str.132 = private unnamed_addr constant [16 x i8] c"String expected\00", align 1

; Function Attrs: nounwind uwtable
define internal void @StringClear(ptr noundef %0) #0 {
  %2 = alloca ptr, align 8
  store ptr %0, ptr %2, align 8
  %3 = load ptr, ptr %2, align 8
  %4 = getelementptr inbounds %struct.string, ptr %3, i32 0, i32 2
  store i32 0, ptr %4, align 4
  ret void
}

; Function Attrs: nounwind uwtable
define internal void @NextCh(ptr noundef %0) #0 {
  %2 = alloca ptr, align 8
  store ptr %0, ptr %2, align 8
  %3 = load ptr, ptr %2, align 8
  %4 = getelementptr inbounds %struct.struct_it8, ptr %3, i32 0, i32 16
  %5 = load ptr, ptr %2, align 8
  %6 = getelementptr inbounds %struct.struct_it8, ptr %5, i32 0, i32 17
  %7 = load i32, ptr %6, align 8
  %8 = sext i32 %7 to i64
  %9 = getelementptr inbounds [20 x ptr], ptr %4, i64 0, i64 %8
  %10 = load ptr, ptr %9, align 8
  %11 = getelementptr inbounds %struct._FileContext, ptr %10, i32 0, i32 1
  %12 = load ptr, ptr %11, align 8
  %13 = icmp ne ptr %12, null
  br i1 %13, label %14, label %65

14:                                               ; preds = %1
  %15 = load ptr, ptr %2, align 8
  %16 = getelementptr inbounds %struct.struct_it8, ptr %15, i32 0, i32 16
  %17 = load ptr, ptr %2, align 8
  %18 = getelementptr inbounds %struct.struct_it8, ptr %17, i32 0, i32 17
  %19 = load i32, ptr %18, align 8
  %20 = sext i32 %19 to i64
  %21 = getelementptr inbounds [20 x ptr], ptr %16, i64 0, i64 %20
  %22 = load ptr, ptr %21, align 8
  %23 = getelementptr inbounds %struct._FileContext, ptr %22, i32 0, i32 1
  %24 = load ptr, ptr %23, align 8
  %25 = call i32 @fgetc(ptr noundef %24)
  %26 = load ptr, ptr %2, align 8
  %27 = getelementptr inbounds %struct.struct_it8, ptr %26, i32 0, i32 7
  store i32 %25, ptr %27, align 4
  %28 = load ptr, ptr %2, align 8
  %29 = getelementptr inbounds %struct.struct_it8, ptr %28, i32 0, i32 16
  %30 = load ptr, ptr %2, align 8
  %31 = getelementptr inbounds %struct.struct_it8, ptr %30, i32 0, i32 17
  %32 = load i32, ptr %31, align 8
  %33 = sext i32 %32 to i64
  %34 = getelementptr inbounds [20 x ptr], ptr %29, i64 0, i64 %33
  %35 = load ptr, ptr %34, align 8
  %36 = getelementptr inbounds %struct._FileContext, ptr %35, i32 0, i32 1
  %37 = load ptr, ptr %36, align 8
  %38 = call i32 @feof(ptr noundef %37) #9
  %39 = icmp ne i32 %38, 0
  br i1 %39, label %40, label %64

40:                                               ; preds = %14
  %41 = load ptr, ptr %2, align 8
  %42 = getelementptr inbounds %struct.struct_it8, ptr %41, i32 0, i32 17
  %43 = load i32, ptr %42, align 8
  %44 = icmp sgt i32 %43, 0
  br i1 %44, label %45, label %60

45:                                               ; preds = %40
  %46 = load ptr, ptr %2, align 8
  %47 = getelementptr inbounds %struct.struct_it8, ptr %46, i32 0, i32 16
  %48 = load ptr, ptr %2, align 8
  %49 = getelementptr inbounds %struct.struct_it8, ptr %48, i32 0, i32 17
  %50 = load i32, ptr %49, align 8
  %51 = add nsw i32 %50, -1
  store i32 %51, ptr %49, align 8
  %52 = sext i32 %50 to i64
  %53 = getelementptr inbounds [20 x ptr], ptr %47, i64 0, i64 %52
  %54 = load ptr, ptr %53, align 8
  %55 = getelementptr inbounds %struct._FileContext, ptr %54, i32 0, i32 1
  %56 = load ptr, ptr %55, align 8
  %57 = call i32 @fclose(ptr noundef %56)
  %58 = load ptr, ptr %2, align 8
  %59 = getelementptr inbounds %struct.struct_it8, ptr %58, i32 0, i32 7
  store i32 32, ptr %59, align 4
  br label %63

60:                                               ; preds = %40
  %61 = load ptr, ptr %2, align 8
  %62 = getelementptr inbounds %struct.struct_it8, ptr %61, i32 0, i32 7
  store i32 0, ptr %62, align 4
  br label %63

63:                                               ; preds = %60, %45
  br label %64

64:                                               ; preds = %63, %14
  br label %83

65:                                               ; preds = %1
  %66 = load ptr, ptr %2, align 8
  %67 = getelementptr inbounds %struct.struct_it8, ptr %66, i32 0, i32 14
  %68 = load ptr, ptr %67, align 8
  %69 = load i8, ptr %68, align 1
  %70 = sext i8 %69 to i32
  %71 = load ptr, ptr %2, align 8
  %72 = getelementptr inbounds %struct.struct_it8, ptr %71, i32 0, i32 7
  store i32 %70, ptr %72, align 4
  %73 = load ptr, ptr %2, align 8
  %74 = getelementptr inbounds %struct.struct_it8, ptr %73, i32 0, i32 7
  %75 = load i32, ptr %74, align 4
  %76 = icmp ne i32 %75, 0
  br i1 %76, label %77, label %82

77:                                               ; preds = %65
  %78 = load ptr, ptr %2, align 8
  %79 = getelementptr inbounds %struct.struct_it8, ptr %78, i32 0, i32 14
  %80 = load ptr, ptr %79, align 8
  %81 = getelementptr inbounds i8, ptr %80, i32 1
  store ptr %81, ptr %79, align 8
  br label %82

82:                                               ; preds = %77, %65
  br label %83

83:                                               ; preds = %82, %64
  ret void
}

; Function Attrs: nounwind uwtable
define internal i32 @isseparator(i32 noundef %0) #0 {
  %2 = alloca i32, align 4
  store i32 %0, ptr %2, align 4
  %3 = load i32, ptr %2, align 4
  %4 = icmp eq i32 %3, 32
  br i1 %4, label %8, label %5

5:                                                ; preds = %1
  %6 = load i32, ptr %2, align 4
  %7 = icmp eq i32 %6, 9
  br label %8

8:                                                ; preds = %5, %1
  %9 = phi i1 [ true, %1 ], [ %7, %5 ]
  %10 = zext i1 %9 to i32
  ret i32 %10
}

; Function Attrs: nounwind uwtable
define internal void @InStringSymbol(ptr noundef %0) #0 {
  %2 = alloca ptr, align 8
  %3 = alloca i32, align 4
  store ptr %0, ptr %2, align 8
  br label %4

4:                                                ; preds = %10, %1
  %5 = load ptr, ptr %2, align 8
  %6 = getelementptr inbounds %struct.struct_it8, ptr %5, i32 0, i32 7
  %7 = load i32, ptr %6, align 4
  %8 = call i32 @isseparator(i32 noundef %7)
  %9 = icmp ne i32 %8, 0
  br i1 %9, label %10, label %12

10:                                               ; preds = %4
  %11 = load ptr, ptr %2, align 8
  call void @NextCh(ptr noundef %11)
  br label %4, !llvm.loop !64

12:                                               ; preds = %4
  %13 = load ptr, ptr %2, align 8
  %14 = getelementptr inbounds %struct.struct_it8, ptr %13, i32 0, i32 7
  %15 = load i32, ptr %14, align 4
  %16 = icmp eq i32 %15, 39
  br i1 %16, label %22, label %17

17:                                               ; preds = %12
  %18 = load ptr, ptr %2, align 8
  %19 = getelementptr inbounds %struct.struct_it8, ptr %18, i32 0, i32 7
  %20 = load i32, ptr %19, align 4
  %21 = icmp eq i32 %20, 34
  br i1 %21, label %22, label %66

22:                                               ; preds = %17, %12
  %23 = load ptr, ptr %2, align 8
  %24 = getelementptr inbounds %struct.struct_it8, ptr %23, i32 0, i32 7
  %25 = load i32, ptr %24, align 4
  store i32 %25, ptr %3, align 4
  %26 = load ptr, ptr %2, align 8
  %27 = getelementptr inbounds %struct.struct_it8, ptr %26, i32 0, i32 11
  %28 = load ptr, ptr %27, align 8
  call void @StringClear(ptr noundef %28)
  %29 = load ptr, ptr %2, align 8
  call void @NextCh(ptr noundef %29)
  br label %30

30:                                               ; preds = %61, %22
  %31 = load ptr, ptr %2, align 8
  %32 = getelementptr inbounds %struct.struct_it8, ptr %31, i32 0, i32 7
  %33 = load i32, ptr %32, align 4
  %34 = load i32, ptr %3, align 4
  %35 = icmp ne i32 %33, %34
  br i1 %35, label %36, label %62

36:                                               ; preds = %30
  %37 = load ptr, ptr %2, align 8
  %38 = getelementptr inbounds %struct.struct_it8, ptr %37, i32 0, i32 7
  %39 = load i32, ptr %38, align 4
  %40 = icmp eq i32 %39, 10
  br i1 %40, label %51, label %41

41:                                               ; preds = %36
  %42 = load ptr, ptr %2, align 8
  %43 = getelementptr inbounds %struct.struct_it8, ptr %42, i32 0, i32 7
  %44 = load i32, ptr %43, align 4
  %45 = icmp eq i32 %44, 13
  br i1 %45, label %51, label %46

46:                                               ; preds = %41
  %47 = load ptr, ptr %2, align 8
  %48 = getelementptr inbounds %struct.struct_it8, ptr %47, i32 0, i32 7
  %49 = load i32, ptr %48, align 4
  %50 = icmp eq i32 %49, 0
  br i1 %50, label %51, label %52

51:                                               ; preds = %46, %41, %36
  br label %62

52:                                               ; preds = %46
  %53 = load ptr, ptr %2, align 8
  %54 = getelementptr inbounds %struct.struct_it8, ptr %53, i32 0, i32 11
  %55 = load ptr, ptr %54, align 8
  %56 = load ptr, ptr %2, align 8
  %57 = getelementptr inbounds %struct.struct_it8, ptr %56, i32 0, i32 7
  %58 = load i32, ptr %57, align 4
  %59 = trunc i32 %58 to i8
  call void @StringAppend(ptr noundef %55, i8 noundef signext %59)
  %60 = load ptr, ptr %2, align 8
  call void @NextCh(ptr noundef %60)
  br label %61

61:                                               ; preds = %52
  br label %30, !llvm.loop !65

62:                                               ; preds = %51, %30
  %63 = load ptr, ptr %2, align 8
  %64 = getelementptr inbounds %struct.struct_it8, ptr %63, i32 0, i32 6
  store i32 4, ptr %64, align 8
  %65 = load ptr, ptr %2, align 8
  call void @NextCh(ptr noundef %65)
  br label %69

66:                                               ; preds = %17
  %67 = load ptr, ptr %2, align 8
  %68 = call i32 (ptr, ptr, ...) @SynError(ptr noundef %67, ptr noundef @.str.132)
  br label %69

69:                                               ; preds = %66, %62
  ret void
}