; Function Attrs: nounwind uwtable
define internal fastcc void @InStringSymbol(ptr nocapture noundef %0) unnamed_addr #0 {
  %2 = getelementptr inbounds i8, ptr %0, i64 271364
  %3 = getelementptr inbounds i8, ptr %0, i64 271432
  %4 = getelementptr inbounds i8, ptr %0, i64 271592
  %5 = getelementptr inbounds i8, ptr %0, i64 271416
  br label %NextCh.exit

NextCh.exit:                                      ; preds = %NextCh.exit.backedge, %1
  %6 = load i32, ptr %2, align 4
  switch i32 %6, label %151 [
    i32 32, label %7
    i32 9, label %7
    i32 39, label %41
    i32 34, label %41
  ]

7:                                                ; preds = %NextCh.exit, %NextCh.exit
  %8 = load i32, ptr %4, align 8
  %9 = sext i32 %8 to i64
  %10 = getelementptr inbounds [20 x ptr], ptr %3, i64 0, i64 %9
  %11 = load ptr, ptr %10, align 8
  %12 = getelementptr inbounds i8, ptr %11, i64 256
  %13 = load ptr, ptr %12, align 8
  %.not.i = icmp eq ptr %13, null
  br i1 %.not.i, label %35, label %14

14:                                               ; preds = %7
  %15 = tail call i32 @fgetc(ptr noundef nonnull %13)
  store i32 %15, ptr %2, align 4
  %16 = load i32, ptr %4, align 8
  %17 = sext i32 %16 to i64
  %18 = getelementptr inbounds [20 x ptr], ptr %3, i64 0, i64 %17
  %19 = load ptr, ptr %18, align 8
  %20 = getelementptr inbounds i8, ptr %19, i64 256
  %21 = load ptr, ptr %20, align 8
  %22 = tail call i32 @feof(ptr noundef %21) #17
  %.not18.i = icmp eq i32 %22, 0
  br i1 %.not18.i, label %NextCh.exit.backedge, label %23

NextCh.exit.backedge:                             ; preds = %14, %26, %34, %35, %39
  br label %NextCh.exit, !llvm.loop !74

23:                                               ; preds = %14
  %24 = load i32, ptr %4, align 8
  %25 = icmp sgt i32 %24, 0
  br i1 %25, label %26, label %34

26:                                               ; preds = %23
  %27 = add nsw i32 %24, -1
  store i32 %27, ptr %4, align 8
  %28 = zext nneg i32 %24 to i64
  %29 = getelementptr inbounds [20 x ptr], ptr %3, i64 0, i64 %28
  %30 = load ptr, ptr %29, align 8
  %31 = getelementptr inbounds i8, ptr %30, i64 256
  %32 = load ptr, ptr %31, align 8
  %33 = tail call i32 @fclose(ptr noundef %32)
  store i32 32, ptr %2, align 4
  br label %NextCh.exit.backedge

34:                                               ; preds = %23
  store i32 0, ptr %2, align 4
  br label %NextCh.exit.backedge

35:                                               ; preds = %7
  %36 = load ptr, ptr %5, align 8
  %37 = load i8, ptr %36, align 1
  %38 = sext i8 %37 to i32
  store i32 %38, ptr %2, align 4
  %.not17.i = icmp eq i8 %37, 0
  br i1 %.not17.i, label %NextCh.exit.backedge, label %39

39:                                               ; preds = %35
  %40 = getelementptr inbounds i8, ptr %36, i64 1
  store ptr %40, ptr %5, align 8
  br label %NextCh.exit.backedge

41:                                               ; preds = %NextCh.exit, %NextCh.exit
  %42 = getelementptr inbounds i8, ptr %0, i64 271392
  %43 = load ptr, ptr %42, align 8
  %44 = getelementptr inbounds i8, ptr %43, i64 12
  store i32 0, ptr %44, align 4
  %45 = load i32, ptr %4, align 8
  %46 = sext i32 %45 to i64
  %47 = getelementptr inbounds [20 x ptr], ptr %3, i64 0, i64 %46
  %48 = load ptr, ptr %47, align 8
  %49 = getelementptr inbounds i8, ptr %48, i64 256
  %50 = load ptr, ptr %49, align 8
  %.not.i21 = icmp eq ptr %50, null
  br i1 %.not.i21, label %72, label %51

51:                                               ; preds = %41
  %52 = tail call i32 @fgetc(ptr noundef nonnull %50)
  store i32 %52, ptr %2, align 4
  %53 = load i32, ptr %4, align 8
  %54 = sext i32 %53 to i64
  %55 = getelementptr inbounds [20 x ptr], ptr %3, i64 0, i64 %54
  %56 = load ptr, ptr %55, align 8
  %57 = getelementptr inbounds i8, ptr %56, i64 256
  %58 = load ptr, ptr %57, align 8
  %59 = tail call i32 @feof(ptr noundef %58) #17
  %.not18.i22 = icmp eq i32 %59, 0
  br i1 %.not18.i22, label %.NextCh.exit24_crit_edge, label %60

.NextCh.exit24_crit_edge:                         ; preds = %51
  %.pre = load i32, ptr %2, align 4
  br label %NextCh.exit24

60:                                               ; preds = %51
  %61 = load i32, ptr %4, align 8
  %62 = icmp sgt i32 %61, 0
  br i1 %62, label %63, label %71

63:                                               ; preds = %60
  %64 = add nsw i32 %61, -1
  store i32 %64, ptr %4, align 8
  %65 = zext nneg i32 %61 to i64
  %66 = getelementptr inbounds [20 x ptr], ptr %3, i64 0, i64 %65
  %67 = load ptr, ptr %66, align 8
  %68 = getelementptr inbounds i8, ptr %67, i64 256
  %69 = load ptr, ptr %68, align 8
  %70 = tail call i32 @fclose(ptr noundef %69)
  store i32 32, ptr %2, align 4
  br label %NextCh.exit24

71:                                               ; preds = %60
  store i32 0, ptr %2, align 4
  br label %NextCh.exit24

72:                                               ; preds = %41
  %73 = load ptr, ptr %5, align 8
  %74 = load i8, ptr %73, align 1
  %75 = sext i8 %74 to i32
  store i32 %75, ptr %2, align 4
  %.not17.i23 = icmp eq i8 %74, 0
  br i1 %.not17.i23, label %NextCh.exit24, label %76

76:                                               ; preds = %72
  %77 = getelementptr inbounds i8, ptr %73, i64 1
  store ptr %77, ptr %5, align 8
  br label %NextCh.exit24

NextCh.exit24:                                    ; preds = %.NextCh.exit24_crit_edge, %63, %71, %72, %76
  %78 = phi i32 [ %.pre, %.NextCh.exit24_crit_edge ], [ 32, %63 ], [ 0, %71 ], [ 0, %72 ], [ %75, %76 ]
  %.fr = freeze i32 %78
  %.not1839 = icmp eq i32 %.fr, %6
  br i1 %.not1839, label %switch.early.test._crit_edge, label %switch.early.test

switch.early.test:                                ; preds = %NextCh.exit24, %NextCh.exit28
  %79 = phi i32 [ %.fr42, %NextCh.exit28 ], [ %.fr, %NextCh.exit24 ]
  switch i32 %79, label %80 [
    i32 13, label %switch.early.test._crit_edge
    i32 10, label %switch.early.test._crit_edge
    i32 0, label %switch.early.test._crit_edge
  ]

80:                                               ; preds = %switch.early.test
  %81 = load ptr, ptr %42, align 8
  %82 = trunc i32 %79 to i8
  tail call fastcc void @StringAppend(ptr noundef %81, i8 noundef signext %82)
  %83 = load i32, ptr %4, align 8
  %84 = sext i32 %83 to i64
  %85 = getelementptr inbounds [20 x ptr], ptr %3, i64 0, i64 %84
  %86 = load ptr, ptr %85, align 8
  %87 = getelementptr inbounds i8, ptr %86, i64 256
  %88 = load ptr, ptr %87, align 8
  %.not.i25 = icmp eq ptr %88, null
  br i1 %.not.i25, label %110, label %89

89:                                               ; preds = %80
  %90 = tail call i32 @fgetc(ptr noundef nonnull %88)
  store i32 %90, ptr %2, align 4
  %91 = load i32, ptr %4, align 8
  %92 = sext i32 %91 to i64
  %93 = getelementptr inbounds [20 x ptr], ptr %3, i64 0, i64 %92
  %94 = load ptr, ptr %93, align 8
  %95 = getelementptr inbounds i8, ptr %94, i64 256
  %96 = load ptr, ptr %95, align 8
  %97 = tail call i32 @feof(ptr noundef %96) #17
  %.not18.i26 = icmp eq i32 %97, 0
  br i1 %.not18.i26, label %.NextCh.exit28_crit_edge, label %98

.NextCh.exit28_crit_edge:                         ; preds = %89
  %.pre44 = load i32, ptr %2, align 4
  br label %NextCh.exit28

98:                                               ; preds = %89
  %99 = load i32, ptr %4, align 8
  %100 = icmp sgt i32 %99, 0
  br i1 %100, label %101, label %109

101:                                              ; preds = %98
  %102 = add nsw i32 %99, -1
  store i32 %102, ptr %4, align 8
  %103 = zext nneg i32 %99 to i64
  %104 = getelementptr inbounds [20 x ptr], ptr %3, i64 0, i64 %103
  %105 = load ptr, ptr %104, align 8
  %106 = getelementptr inbounds i8, ptr %105, i64 256
  %107 = load ptr, ptr %106, align 8
  %108 = tail call i32 @fclose(ptr noundef %107)
  store i32 32, ptr %2, align 4
  br label %NextCh.exit28

109:                                              ; preds = %98
  store i32 0, ptr %2, align 4
  br label %NextCh.exit28

110:                                              ; preds = %80
  %111 = load ptr, ptr %5, align 8
  %112 = load i8, ptr %111, align 1
  %113 = sext i8 %112 to i32
  store i32 %113, ptr %2, align 4
  %.not17.i27 = icmp eq i8 %112, 0
  br i1 %.not17.i27, label %NextCh.exit28, label %114

114:                                              ; preds = %110
  %115 = getelementptr inbounds i8, ptr %111, i64 1
  store ptr %115, ptr %5, align 8
  br label %NextCh.exit28

NextCh.exit28:                                    ; preds = %.NextCh.exit28_crit_edge, %101, %109, %110, %114
  %116 = phi i32 [ %.pre44, %.NextCh.exit28_crit_edge ], [ 32, %101 ], [ 0, %109 ], [ 0, %110 ], [ %113, %114 ]
  %.fr42 = freeze i32 %116
  %.not18 = icmp eq i32 %.fr42, %6
  br i1 %.not18, label %switch.early.test._crit_edge, label %switch.early.test, !llvm.loop !75

switch.early.test._crit_edge:                     ; preds = %NextCh.exit28, %switch.early.test, %switch.early.test, %switch.early.test, %NextCh.exit24
  %117 = getelementptr inbounds i8, ptr %0, i64 271360
  store i32 4, ptr %117, align 8
  %118 = load i32, ptr %4, align 8
  %119 = sext i32 %118 to i64
  %120 = getelementptr inbounds [20 x ptr], ptr %3, i64 0, i64 %119
  %121 = load ptr, ptr %120, align 8
  %122 = getelementptr inbounds i8, ptr %121, i64 256
  %123 = load ptr, ptr %122, align 8
  %.not.i29 = icmp eq ptr %123, null
  br i1 %.not.i29, label %145, label %124

124:                                              ; preds = %switch.early.test._crit_edge
  %125 = tail call i32 @fgetc(ptr noundef nonnull %123)
  store i32 %125, ptr %2, align 4
  %126 = load i32, ptr %4, align 8
  %127 = sext i32 %126 to i64
  %128 = getelementptr inbounds [20 x ptr], ptr %3, i64 0, i64 %127
  %129 = load ptr, ptr %128, align 8
  %130 = getelementptr inbounds i8, ptr %129, i64 256
  %131 = load ptr, ptr %130, align 8
  %132 = tail call i32 @feof(ptr noundef %131) #17
  %.not18.i30 = icmp eq i32 %132, 0
  br i1 %.not18.i30, label %NextCh.exit32, label %133

133:                                              ; preds = %124
  %134 = load i32, ptr %4, align 8
  %135 = icmp sgt i32 %134, 0
  br i1 %135, label %136, label %144

136:                                              ; preds = %133
  %137 = add nsw i32 %134, -1
  store i32 %137, ptr %4, align 8
  %138 = zext nneg i32 %134 to i64
  %139 = getelementptr inbounds [20 x ptr], ptr %3, i64 0, i64 %138
  %140 = load ptr, ptr %139, align 8
  %141 = getelementptr inbounds i8, ptr %140, i64 256
  %142 = load ptr, ptr %141, align 8
  %143 = tail call i32 @fclose(ptr noundef %142)
  store i32 32, ptr %2, align 4
  br label %NextCh.exit32

144:                                              ; preds = %133
  store i32 0, ptr %2, align 4
  br label %NextCh.exit32

145:                                              ; preds = %switch.early.test._crit_edge
  %146 = load ptr, ptr %5, align 8
  %147 = load i8, ptr %146, align 1
  %148 = sext i8 %147 to i32
  store i32 %148, ptr %2, align 4
  %.not17.i31 = icmp eq i8 %147, 0
  br i1 %.not17.i31, label %NextCh.exit32, label %149

149:                                              ; preds = %145
  %150 = getelementptr inbounds i8, ptr %146, i64 1
  store ptr %150, ptr %5, align 8
  br label %NextCh.exit32

151:                                              ; preds = %NextCh.exit
  tail call void (ptr, ptr, ...) @SynError(ptr noundef nonnull %0, ptr noundef nonnull @.str.132)
  br label %NextCh.exit32

NextCh.exit32:                                    ; preds = %149, %145, %144, %136, %124, %151
  ret void
}